; ModuleID = '36/1624.c'
source_filename = "36/1624.c"
target datalayout = "e-m:e-p270:32:32-p271:32:32-p272:64:64-i64:64-f80:128-n8:16:32:64-S128"
target triple = "x86_64-pc-linux-gnu"

@.str = private unnamed_addr constant [3 x i8] c"%s\00", align 1
@.str.1 = private unnamed_addr constant [5 x i8] c"YES\0A\00", align 1
@.str.2 = private unnamed_addr constant [4 x i8] c"NO\0A\00", align 1

; Function Attrs: noinline nounwind uwtable
define dso_local void @count(i32* %0, i8* %1, i32 %2) #0 {
  %4 = alloca i32*, align 8
  %5 = alloca i8*, align 8
  %6 = alloca i32, align 4
  %7 = alloca i32, align 4
  %8 = alloca i32, align 4
  store i32* %0, i32** %4, align 8
  store i8* %1, i8** %5, align 8
  store i32 %2, i32* %6, align 4
  store i32 0, i32* %7, align 4
  br label %9

9:                                                ; preds = %27, %3
  %10 = load i32, i32* %7, align 4
  %11 = load i32, i32* %6, align 4
  %12 = sub nsw i32 %11, 1
  %13 = icmp sle i32 %10, %12
  br i1 %13, label %14, label %30

14:                                               ; preds = %9
  %15 = load i8*, i8** %5, align 8
  %16 = load i32, i32* %7, align 4
  %17 = sext i32 %16 to i64
  %18 = getelementptr inbounds i8, i8* %15, i64 %17
  %19 = load i8, i8* %18, align 1
  %20 = sext i8 %19 to i32
  store i32 %20, i32* %8, align 4
  %21 = load i32*, i32** %4, align 8
  %22 = load i32, i32* %8, align 4
  %23 = sext i32 %22 to i64
  %24 = getelementptr inbounds i32, i32* %21, i64 %23
  %25 = load i32, i32* %24, align 4
  %26 = add nsw i32 %25, 1
  store i32 %26, i32* %24, align 4
  br label %27

27:                                               ; preds = %14
  %28 = load i32, i32* %7, align 4
  %29 = add nsw i32 %28, 1
  store i32 %29, i32* %7, align 4
  br label %9

30:                                               ; preds = %9
  ret void
}

; Function Attrs: noinline nounwind uwtable
define dso_local i32 @main() #0 {
  %1 = alloca i32, align 4
  %2 = alloca [200 x i32], align 16
  %3 = alloca [200 x i32], align 16
  %4 = alloca i32, align 4
  %5 = alloca i32, align 4
  %6 = alloca i32, align 4
  %7 = alloca i32, align 4
  %8 = alloca [1000 x i8], align 16
  %9 = alloca [1000 x i8], align 16
  store i32 0, i32* %1, align 4
  %10 = bitcast [200 x i32]* %2 to i8*
  call void @llvm.memset.p0i8.i64(i8* align 16 %10, i8 0, i64 800, i1 false)
  %11 = bitcast [200 x i32]* %3 to i8*
  call void @llvm.memset.p0i8.i64(i8* align 16 %11, i8 0, i64 800, i1 false)
  store i32 1, i32* %6, align 4
  %12 = bitcast [1000 x i8]* %8 to i8*
  call void @llvm.memset.p0i8.i64(i8* align 16 %12, i8 0, i64 1000, i1 false)
  %13 = bitcast [1000 x i8]* %9 to i8*
  call void @llvm.memset.p0i8.i64(i8* align 16 %13, i8 0, i64 1000, i1 false)
  %14 = getelementptr inbounds [1000 x i8], [1000 x i8]* %8, i64 0, i64 0
  %15 = call i32 (i8*, ...) @__isoc99_scanf(i8* getelementptr inbounds ([3 x i8], [3 x i8]* @.str, i64 0, i64 0), i8* %14)
  %16 = getelementptr inbounds [1000 x i8], [1000 x i8]* %9, i64 0, i64 0
  %17 = call i32 (i8*, ...) @__isoc99_scanf(i8* getelementptr inbounds ([3 x i8], [3 x i8]* @.str, i64 0, i64 0), i8* %16)
  %18 = getelementptr inbounds [1000 x i8], [1000 x i8]* %8, i64 0, i64 0
  %19 = call i64 @strlen(i8* %18) #4
  %20 = trunc i64 %19 to i32
  store i32 %20, i32* %4, align 4
  %21 = getelementptr inbounds [1000 x i8], [1000 x i8]* %9, i64 0, i64 0
  %22 = call i64 @strlen(i8* %21) #4
  %23 = trunc i64 %22 to i32
  store i32 %23, i32* %5, align 4
  %24 = getelementptr inbounds [200 x i32], [200 x i32]* %2, i64 0, i64 0
  %25 = getelementptr inbounds [1000 x i8], [1000 x i8]* %8, i64 0, i64 0
  %26 = load i32, i32* %4, align 4
  call void @count(i32* %24, i8* %25, i32 %26)
  %27 = getelementptr inbounds [200 x i32], [200 x i32]* %3, i64 0, i64 0
  %28 = getelementptr inbounds [1000 x i8], [1000 x i8]* %9, i64 0, i64 0
  %29 = load i32, i32* %5, align 4
  call void @count(i32* %27, i8* %28, i32 %29)
  store i32 1, i32* %7, align 4
  br label %30

30:                                               ; preds = %45, %0
  %31 = load i32, i32* %7, align 4
  %32 = icmp sle i32 %31, 199
  br i1 %32, label %33, label %48

33:                                               ; preds = %30
  %34 = load i32, i32* %7, align 4
  %35 = sext i32 %34 to i64
  %36 = getelementptr inbounds [200 x i32], [200 x i32]* %2, i64 0, i64 %35
  %37 = load i32, i32* %36, align 4
  %38 = load i32, i32* %7, align 4
  %39 = sext i32 %38 to i64
  %40 = getelementptr inbounds [200 x i32], [200 x i32]* %3, i64 0, i64 %39
  %41 = load i32, i32* %40, align 4
  %42 = icmp ne i32 %37, %41
  br i1 %42, label %43, label %44

43:                                               ; preds = %33
  store i32 0, i32* %6, align 4
  br label %44

44:                                               ; preds = %43, %33
  br label %45

45:                                               ; preds = %44
  %46 = load i32, i32* %7, align 4
  %47 = add nsw i32 %46, 1
  store i32 %47, i32* %7, align 4
  br label %30

48:                                               ; preds = %30
  %49 = load i32, i32* %6, align 4
  %50 = icmp eq i32 %49, 1
  br i1 %50, label %51, label %53

51:                                               ; preds = %48
  %52 = call i32 (i8*, ...) @printf(i8* getelementptr inbounds ([5 x i8], [5 x i8]* @.str.1, i64 0, i64 0))
  br label %59

53:                                               ; preds = %48
  %54 = load i32, i32* %6, align 4
  %55 = icmp eq i32 %54, 0
  br i1 %55, label %56, label %58

56:                                               ; preds = %53
  %57 = call i32 (i8*, ...) @printf(i8* getelementptr inbounds ([4 x i8], [4 x i8]* @.str.2, i64 0, i64 0))
  br label %58

58:                                               ; preds = %56, %53
  br label %59

59:                                               ; preds = %58, %51
  ret i32 0
}

; Function Attrs: argmemonly nounwind willreturn
declare void @llvm.memset.p0i8.i64(i8* nocapture writeonly, i8, i64, i1 immarg) #1

declare dso_local i32 @__isoc99_scanf(i8*, ...) #2

; Function Attrs: nounwind readonly
declare dso_local i64 @strlen(i8*) #3

declare dso_local i32 @printf(i8*, ...) #2


!llvm.module.flags = !{!0}
!llvm.ident = !{!1}

!0 = !{i32 1, !"wchar_size", i32 4}
!1 = !{!"clang version 10.0.0-4ubuntu1 "}
